target datalayout = "e-m:e-p270:32:32-p271:32:32-p272:64:64-i64:64-i128:128-f80:128-n8:16:32:64-S128"
target triple = "x86_64-pc-linux-gnu"

%struct.mbedtls_pk_context = type { ptr, ptr }

; Function Attrs: nounwind uwtable
define internal i32 @rsa_verify_wrap(ptr noundef %0, i32 noundef %1, ptr noundef %2, i64 noundef %3, ptr noundef %4, i64 noundef %5) #0 {
  %7 = alloca i32, align 4
  %8 = alloca ptr, align 8
  %9 = alloca i32, align 4
  %10 = alloca ptr, align 8
  %11 = alloca i64, align 8
  %12 = alloca ptr, align 8
  %13 = alloca i64, align 8
  %14 = alloca i32, align 4
  %15 = alloca ptr, align 8
  %16 = alloca i64, align 8
  %17 = alloca i32, align 4
  store ptr %0, ptr %8, align 8, !tbaa !3
  store i32 %1, ptr %9, align 4, !tbaa !13
  store ptr %2, ptr %10, align 8, !tbaa !15
  store i64 %3, ptr %11, align 8, !tbaa !17
  store ptr %4, ptr %12, align 8, !tbaa !15
  store i64 %5, ptr %13, align 8, !tbaa !17
  call void @llvm.lifetime.start.p0(i64 4, ptr %14) #6
  store i32 -110, ptr %14, align 4, !tbaa !13
  call void @llvm.lifetime.start.p0(i64 8, ptr %15) #6
  %18 = load ptr, ptr %8, align 8, !tbaa !3
  %19 = getelementptr inbounds nuw %struct.mbedtls_pk_context, ptr %18, i32 0, i32 1
  %20 = load ptr, ptr %19, align 8, !tbaa !8
  store ptr %20, ptr %15, align 8, !tbaa !11
  call void @llvm.lifetime.start.p0(i64 8, ptr %16) #6
  %21 = load ptr, ptr %15, align 8, !tbaa !11
  %22 = call i64 @mbedtls_rsa_get_len(ptr noundef %21)
  store i64 %22, ptr %16, align 8, !tbaa !17
  %23 = load i32, ptr %9, align 4, !tbaa !13
  %24 = icmp eq i32 %23, 0
  br i1 %24, label %25, label %29

25:                                               ; preds = %6
  %26 = load i64, ptr %11, align 8, !tbaa !17
  %27 = icmp ult i64 4294967295, %26
  br i1 %27, label %28, label %29

28:                                               ; preds = %25
  store i32 -16000, ptr %7, align 4
  store i32 1, ptr %17, align 4
  br label %51

29:                                               ; preds = %25, %6
  %30 = load i64, ptr %13, align 8, !tbaa !17
  %31 = load i64, ptr %16, align 8, !tbaa !17
  %32 = icmp ult i64 %30, %31
  br i1 %32, label %33, label %34

33:                                               ; preds = %29
  store i32 -17280, ptr %7, align 4
  store i32 1, ptr %17, align 4
  br label %51

34:                                               ; preds = %29
  %35 = load ptr, ptr %15, align 8, !tbaa !11
  %36 = load i32, ptr %9, align 4, !tbaa !13
  %37 = load i64, ptr %11, align 8, !tbaa !17
  %38 = trunc i64 %37 to i32
  %39 = load ptr, ptr %10, align 8, !tbaa !15
  %40 = load ptr, ptr %12, align 8, !tbaa !15
  %41 = call i32 @mbedtls_rsa_pkcs1_verify(ptr noundef %35, i32 noundef %36, i32 noundef %38, ptr noundef %39, ptr noundef %40)
  store i32 %41, ptr %14, align 4, !tbaa !13
  %42 = icmp ne i32 %41, 0
  br i1 %42, label %43, label %45

43:                                               ; preds = %34
  %44 = load i32, ptr %14, align 4, !tbaa !13
  store i32 %44, ptr %7, align 4
  store i32 1, ptr %17, align 4
  br label %51

45:                                               ; preds = %34
  %46 = load i64, ptr %13, align 8, !tbaa !17
  %47 = load i64, ptr %16, align 8, !tbaa !17
  %48 = icmp ugt i64 %46, %47
  br i1 %48, label %49, label %50

49:                                               ; preds = %45
  store i32 -14592, ptr %7, align 4
  store i32 1, ptr %17, align 4
  br label %51

50:                                               ; preds = %45
  store i32 0, ptr %7, align 4
  store i32 1, ptr %17, align 4
  br label %51

51:                                               ; preds = %50, %49, %43, %33, %28
  call void @llvm.lifetime.end.p0(i64 8, ptr %16) #6
  call void @llvm.lifetime.end.p0(i64 8, ptr %15) #6
  call void @llvm.lifetime.end.p0(i64 4, ptr %14) #6
  %52 = load i32, ptr %7, align 4
  ret i32 %52
}