; Function Attrs: nounwind uwtable
define internal i32 @rsa_verify_wrap(ptr noundef readonly captures(none) %0, i32 noundef %1, ptr noundef %2, i64 noundef %3, ptr noundef %4, i64 noundef %5) #0 {
  %7 = getelementptr inbounds nuw i8, ptr %0, i64 8
  %8 = load ptr, ptr %7, align 8, !tbaa !3
  %9 = tail call i64 @mbedtls_rsa_get_len(ptr noundef %8) #10
  %10 = icmp eq i32 %1, 0
  %11 = icmp ugt i64 %3, 4294967295
  %or.cond = and i1 %10, %11
  br i1 %or.cond, label %19, label %12

12:                                               ; preds = %6
  %13 = icmp ult i64 %5, %9
  br i1 %13, label %19, label %14

14:                                               ; preds = %12
  %15 = trunc i64 %3 to i32
  %16 = tail call i32 @mbedtls_rsa_pkcs1_verify(ptr noundef %8, i32 noundef %1, i32 noundef %15, ptr noundef %2, ptr noundef %4) #10
  %.not = icmp eq i32 %16, 0
  br i1 %.not, label %17, label %19

17:                                               ; preds = %14
  %18 = icmp ugt i64 %5, %9
  %. = select i1 %18, i32 -14592, i32 0
  br label %19

19:                                               ; preds = %17, %14, %12, %6
  %.0 = phi i32 [ -16000, %6 ], [ -17280, %12 ], [ %16, %14 ], [ %., %17 ]
  ret i32 %.0
}